target datalayout = "e-m:e-p270:32:32-p271:32:32-p272:64:64-i64:64-i128:128-f80:128-n8:16:32:64-S128"
target triple = "x86_64-pc-linux-gnu"

%struct.rb_data_type_struct = type { ptr, %struct.anon, ptr, ptr, i64 }
%struct.anon = type { ptr, ptr, ptr, ptr, [1 x ptr] }

@ossl_x509_type = internal constant %struct.rb_data_type_struct { ptr @.str.34, %struct.anon { ptr null, ptr @ossl_x509_free, ptr null, ptr null, [1 x ptr] zeroinitializer }, ptr null, ptr null, i64 33 }, align 8
@rb_eRuntimeError = external global i64, align 8
@.str = private unnamed_addr constant [25 x i8] c"CERT wasn't initialized!\00", align 1

; Function Attrs: nounwind sspstrong uwtable
define internal i64 @ossl_x509_check_private_key(i64 noundef %0, i64 noundef %1) #0 {
  %3 = alloca i64, align 8
  %4 = alloca i64, align 8
  %5 = alloca i64, align 8
  %6 = alloca ptr, align 8
  %7 = alloca ptr, align 8
  %8 = alloca i32, align 4
  store i64 %0, ptr %4, align 8, !tbaa !11
  store i64 %1, ptr %5, align 8, !tbaa !11
  call void @llvm.lifetime.start.p0(i64 8, ptr %6) #15
  call void @llvm.lifetime.start.p0(i64 8, ptr %7) #15
  %9 = load i64, ptr %5, align 8, !tbaa !11
  %10 = call ptr @GetPrivPKeyPtr(i64 noundef %9)
  store ptr %10, ptr %7, align 8, !tbaa !33
  br label %11

11:                                               ; preds = %2
  %12 = load i64, ptr %4, align 8, !tbaa !11
  %13 = call ptr @rb_check_typeddata(i64 noundef %12, ptr noundef @ossl_x509_type)
  store ptr %13, ptr %6, align 8, !tbaa !6
  %14 = load ptr, ptr %6, align 8, !tbaa !6
  %15 = icmp ne ptr %14, null
  br i1 %15, label %18, label %16

16:                                               ; preds = %11
  %17 = load i64, ptr @rb_eRuntimeError, align 8, !tbaa !11
  call void (i64, ptr, ...) @ossl_raise(i64 noundef %17, ptr noundef @.str) #16
  unreachable

18:                                               ; preds = %11
  br label %19

19:                                               ; preds = %18
  br label %20

20:                                               ; preds = %19
  %21 = load ptr, ptr %6, align 8, !tbaa !6
  %22 = load ptr, ptr %7, align 8, !tbaa !33
  %23 = call i32 @X509_check_private_key(ptr noundef %21, ptr noundef %22)
  %24 = icmp ne i32 %23, 0
  br i1 %24, label %26, label %25

25:                                               ; preds = %20
  call void @ossl_clear_error()
  store i64 0, ptr %3, align 8
  store i32 1, ptr %8, align 4
  br label %27

26:                                               ; preds = %20
  store i64 20, ptr %3, align 8
  store i32 1, ptr %8, align 4
  br label %27

27:                                               ; preds = %26, %25
  call void @llvm.lifetime.end.p0(i64 8, ptr %7) #15
  call void @llvm.lifetime.end.p0(i64 8, ptr %6) #15
  %28 = load i64, ptr %3, align 8
  ret i64 %28
}