; Function Attrs: nounwind sspstrong uwtable
define internal range(i64 0, 21) i64 @ossl_x509_check_private_key(i64 noundef %0, i64 noundef %1) #0 {
  %3 = tail call ptr @GetPrivPKeyPtr(i64 noundef %1) #5
  %4 = tail call ptr @rb_check_typeddata(i64 noundef %0, ptr noundef nonnull @ossl_x509_type) #5
  %.not = icmp eq ptr %4, null
  br i1 %.not, label %5, label %7

5:                                                ; preds = %2
  %6 = load i64, ptr @rb_eRuntimeError, align 8, !tbaa !6
  tail call void (i64, ptr, ...) @ossl_raise(i64 noundef %6, ptr noundef nonnull @.str) #6
  unreachable

7:                                                ; preds = %2
  %8 = tail call i32 @X509_check_private_key(ptr noundef nonnull %4, ptr noundef %3) #5
  %.not6 = icmp eq i32 %8, 0
  br i1 %.not6, label %9, label %10

9:                                                ; preds = %7
  tail call void @ossl_clear_error() #5
  br label %10

10:                                               ; preds = %7, %9
  %.0 = phi i64 [ 0, %9 ], [ 20, %7 ]
  ret i64 %.0
}